ARM GAS  C:\Users\Bartek\AppData\Local\Temp\ccA6BKoT.s 			page 1


   1              		.syntax unified
   2              		.cpu cortex-m4
   3              		.eabi_attribute 27, 1	@ Tag_ABI_HardFP_use
   4              		.eabi_attribute 28, 1	@ Tag_ABI_VFP_args
   5              		.fpu fpv4-sp-d16
   6              		.eabi_attribute 23, 1	@ Tag_ABI_FP_number_model
   7              		.eabi_attribute 24, 1	@ Tag_ABI_align8_needed
   8              		.eabi_attribute 25, 1	@ Tag_ABI_align8_preserved
   9              		.eabi_attribute 26, 1	@ Tag_ABI_enum_size
  10              		.eabi_attribute 30, 6	@ Tag_ABI_optimization_goals
  11              		.eabi_attribute 34, 1	@ Tag_CPU_unaligned_access
  12              		.eabi_attribute 18, 4	@ Tag_ABI_PCS_wchar_t
  13              		.file	"gpio.c"
  14              	@ GNU C89 (GNU Tools for ARM Embedded Processors) version 5.2.1 20151202 (release) [ARM/embedded-5-
  15              	@	compiled by GNU C version 4.7.4, GMP version 4.3.2, MPFR version 2.4.2, MPC version 0.8.1
  16              	@ GGC heuristics: --param ggc-min-expand=100 --param ggc-min-heapsize=131072
  17              	@ options passed:  -I . -I inc -imultilib armv7e-m/fpu
  18              	@ -iprefix g:\stm32toolchain\gnu-arm\5.2_2015q4\bin\../lib/gcc/arm-none-eabi/5.2.1/
  19              	@ -isysroot g:\stm32toolchain\gnu-arm\5.2_2015q4\bin\../arm-none-eabi
  20              	@ -MD out/gpio.d -MF out/gpio.d -MP -MQ out/gpio.o -D__USES_INITFINI__
  21              	@ -D STM32F4XX gpio.c -mcpu=cortex-m4 -mthumb -mfloat-abi=hard
  22              	@ -mfpu=fpv4-sp-d16 -auxbase-strip out/gpio.o -g -ggdb3 -O0 -Wall
  23              	@ -Wstrict-prototypes -Wextra -std=gnu90 -ffast-math -ffunction-sections
  24              	@ -fdata-sections -fverbose-asm
  25              	@ options enabled:  -faggressive-loop-optimizations -fassociative-math
  26              	@ -fauto-inc-dec -fchkp-check-incomplete-type -fchkp-check-read
  27              	@ -fchkp-check-write -fchkp-instrument-calls -fchkp-narrow-bounds
  28              	@ -fchkp-optimize -fchkp-store-bounds -fchkp-use-static-bounds
  29              	@ -fchkp-use-static-const-bounds -fchkp-use-wrappers -fcommon
  30              	@ -fcx-limited-range -fdata-sections -fdelete-null-pointer-checks
  31              	@ -fdwarf2-cfi-asm -fearly-inlining -feliminate-unused-debug-types
  32              	@ -ffinite-math-only -ffunction-cse -ffunction-sections -fgcse-lm
  33              	@ -fgnu-runtime -fgnu-unique -fident -finline-atomics -fira-hoist-pressure
  34              	@ -fira-share-save-slots -fira-share-spill-slots -fivopts
  35              	@ -fkeep-static-consts -fleading-underscore -flifetime-dse
  36              	@ -flto-odr-type-merging -fmerge-debug-strings -fpeephole
  37              	@ -fprefetch-loop-arrays -freciprocal-math -freg-struct-return
  38              	@ -fsched-critical-path-heuristic -fsched-dep-count-heuristic
  39              	@ -fsched-group-heuristic -fsched-interblock -fsched-last-insn-heuristic
  40              	@ -fsched-rank-heuristic -fsched-spec -fsched-spec-insn-heuristic
  41              	@ -fsched-stalled-insns-dep -fsemantic-interposition -fshow-column
  42              	@ -fsplit-ivs-in-unroller -fstdarg-opt -fstrict-volatile-bitfields
  43              	@ -fsync-libcalls -ftree-coalesce-vars -ftree-cselim -ftree-forwprop
  44              	@ -ftree-loop-if-convert -ftree-loop-im -ftree-loop-ivcanon
  45              	@ -ftree-loop-optimize -ftree-parallelize-loops= -ftree-phiprop
  46              	@ -ftree-reassoc -ftree-scev-cprop -funit-at-a-time
  47              	@ -funsafe-math-optimizations -fverbose-asm -fzero-initialized-in-bss
  48              	@ -masm-syntax-unified -mlittle-endian -mpic-data-is-text-relative
  49              	@ -msched-prolog -mthumb -munaligned-access -mvectorize-with-neon-quad
  50              	
  51              		.text
  52              	.Ltext0:
  53              		.cfi_sections	.debug_frame
  54              		.section	.text.gpio_init,"ax",%progbits
  55              		.align	2
  56              		.global	gpio_init
  57              		.thumb
ARM GAS  C:\Users\Bartek\AppData\Local\Temp\ccA6BKoT.s 			page 2


  58              		.thumb_func
  59              		.type	gpio_init, %function
  60              	gpio_init:
  61              	.LFB110:
  62              		.file 1 "gpio.c"
   1:gpio.c        **** /** \file gpio.c
   2:gpio.c        ****  * \brief GPIO driver.
   3:gpio.c        ****  * \details GPIO default configuration and function for configuring a pin
   4:gpio.c        ****  * \author Freddie Chopin, http://www.freddiechopin.info/
   5:gpio.c        ****  * \date 2012-03-17
   6:gpio.c        ****  */
   7:gpio.c        **** 
   8:gpio.c        **** /******************************************************************************
   9:gpio.c        **** * chip: STM32F4x
  10:gpio.c        **** * compiler: arm-none-eabi-gcc (GNU Tools for ARM Embedded Processors) 4.6.2
  11:gpio.c        **** * 	20110921 (release) [ARM/embedded-4_6-branch revision 182083]
  12:gpio.c        **** *
  13:gpio.c        **** * prefix: gpio_
  14:gpio.c        **** *
  15:gpio.c        **** * available global functions:
  16:gpio.c        **** * 	void gpio_init(void)
  17:gpio.c        **** * 	void gpio_pin_cfg(GPIO_TypeDef *port_ptr, uint32_t pin, uint32_t configuration)
  18:gpio.c        **** *
  19:gpio.c        **** * available local functions:
  20:gpio.c        **** *
  21:gpio.c        **** * available interrupt handlers:
  22:gpio.c        **** ******************************************************************************/
  23:gpio.c        **** 
  24:gpio.c        **** /*
  25:gpio.c        **** +=============================================================================+
  26:gpio.c        **** | includes
  27:gpio.c        **** +=============================================================================+
  28:gpio.c        **** */
  29:gpio.c        **** 
  30:gpio.c        **** #include <stdint.h>
  31:gpio.c        **** 
  32:gpio.c        **** #include "inc/stm32f4xx.h"
  33:gpio.c        **** 
  34:gpio.c        **** #include "hdr/hdr_gpio.h"
  35:gpio.c        **** 
  36:gpio.c        **** #include "gpio.h"
  37:gpio.c        **** 
  38:gpio.c        **** /*
  39:gpio.c        **** +=============================================================================+
  40:gpio.c        **** | local definitions
  41:gpio.c        **** +=============================================================================+
  42:gpio.c        **** */
  43:gpio.c        **** 
  44:gpio.c        **** #define GPIO_GET_MODER(combination)			(((combination) & 0xF) >> 0)
  45:gpio.c        **** #define GPIO_GET_OTYPER(combination)		(((combination) & 0xF0) >> 4)
  46:gpio.c        **** #define GPIO_GET_OSPEEDR(combination)		(((combination) & 0xF00) >> 8)
  47:gpio.c        **** #define GPIO_GET_PUPDR(combination)			(((combination) & 0xF000) >> 12)
  48:gpio.c        **** #define GPIO_GET_AFR(combination)			(((combination) & 0xF0000) >> 16)
  49:gpio.c        **** /*
  50:gpio.c        **** +=============================================================================+
  51:gpio.c        **** | module variables
  52:gpio.c        **** +=============================================================================+
ARM GAS  C:\Users\Bartek\AppData\Local\Temp\ccA6BKoT.s 			page 3


  53:gpio.c        **** */
  54:gpio.c        **** 
  55:gpio.c        **** /*
  56:gpio.c        **** +=============================================================================+
  57:gpio.c        **** | local functions' declarations
  58:gpio.c        **** +=============================================================================+
  59:gpio.c        **** */
  60:gpio.c        **** 
  61:gpio.c        **** /*
  62:gpio.c        **** +=============================================================================+
  63:gpio.c        **** | global functions
  64:gpio.c        **** +=============================================================================+
  65:gpio.c        **** */
  66:gpio.c        **** 
  67:gpio.c        **** /*------------------------------------------------------------------------*//**
  68:gpio.c        **** * \brief GPIO initialization.
  69:gpio.c        **** * \details Enables all GPIO ports.
  70:gpio.c        **** *//*-------------------------------------------------------------------------*/
  71:gpio.c        **** 
  72:gpio.c        **** void gpio_init(void)
  73:gpio.c        **** {
  63              		.loc 1 73 0
  64              		.cfi_startproc
  65              		@ args = 0, pretend = 0, frame = 0
  66              		@ frame_needed = 1, uses_anonymous_args = 0
  67              		@ link register save eliminated.
  68 0000 80B4     		push	{r7}	@
  69              		.cfi_def_cfa_offset 4
  70              		.cfi_offset 7, -4
  71 0002 00AF     		add	r7, sp, #0	@,,
  72              		.cfi_def_cfa_register 7
  74:gpio.c        **** 	RCC->AHB1ENR |= RCC_AHB1ENR_GPIOAEN | RCC_AHB1ENR_GPIOBEN |
  73              		.loc 1 74 0
  74 0004 064A     		ldr	r2, .L2	@ D.5532,
  75 0006 064B     		ldr	r3, .L2	@ D.5532,
  76 0008 1B6B     		ldr	r3, [r3, #48]	@ D.5533, _2->AHB1ENR
  77 000a 6FEA5323 		mvn	r3, r3, lsr #9	@ D.5533, D.5533,
  78 000e 6FEA4323 		mvn	r3, r3, lsl #9	@ D.5533, D.5533,
  79 0012 1363     		str	r3, [r2, #48]	@ D.5533, _1->AHB1ENR
  75:gpio.c        **** 			RCC_AHB1ENR_GPIOCEN | RCC_AHB1ENR_GPIODEN | RCC_AHB1ENR_GPIOEEN |
  76:gpio.c        **** 			RCC_AHB1ENR_GPIOFEN | RCC_AHB1ENR_GPIOGEN | RCC_AHB1ENR_GPIOHEN |
  77:gpio.c        **** 			RCC_AHB1ENR_GPIOIEN;			// enable all possible GPIO ports
  78:gpio.c        **** }
  80              		.loc 1 78 0
  81 0014 00BF     		nop
  82 0016 BD46     		mov	sp, r7	@,
  83              		.cfi_def_cfa_register 13
  84              		@ sp needed	@
  85 0018 5DF8047B 		ldr	r7, [sp], #4	@,
  86              		.cfi_restore 7
  87              		.cfi_def_cfa_offset 0
  88 001c 7047     		bx	lr	@
  89              	.L3:
  90 001e 00BF     		.align	2
  91              	.L2:
  92 0020 00380240 		.word	1073887232
  93              		.cfi_endproc
ARM GAS  C:\Users\Bartek\AppData\Local\Temp\ccA6BKoT.s 			page 4


  94              	.LFE110:
  95              		.size	gpio_init, .-gpio_init
  96              		.section	.text.gpio_pin_cfg,"ax",%progbits
  97              		.align	2
  98              		.global	gpio_pin_cfg
  99              		.thumb
 100              		.thumb_func
 101              		.type	gpio_pin_cfg, %function
 102              	gpio_pin_cfg:
 103              	.LFB111:
  79:gpio.c        **** 
  80:gpio.c        **** /*------------------------------------------------------------------------*//**
  81:gpio.c        **** * \brief Configures pin.
  82:gpio.c        **** * \details Configures one pin in one port.
  83:gpio.c        **** *
  84:gpio.c        **** * \param [in] port_ptr points to the configuration structure of desired port
  85:gpio.c        **** * \param [in] pin selects one pin, [0; 15]
  86:gpio.c        **** * \param [in] configuration is a combined value of MODER, OTYPER, OSPEEDR,
  87:gpio.c        **** * PUPDR and AFRx register bitfields, allowed values
  88:gpio.c        **** * {GPIO_IN_FLOATING, GPIO_IN_PULL_UP, GPIO_IN_PULL_DOWN,
  89:gpio.c        **** * GPIO_OUT_{PP, OD}_{2MHz, 25MHz, 50MHz, 100MHz},
  90:gpio.c        **** * GPIO_OUT_{PP, OD}_{2MHz, 25MHz, 50MHz, 100MHz}_{PULL_UP, PULL_DOWN},
  91:gpio.c        **** * GPIO_[AF0; AF15]_{PP, OD}_{2MHz, 25MHz, 50MHz, 100MHz},
  92:gpio.c        **** * GPIO_[AF0; AF15]_{PP, OD}_{2MHz, 25MHz, 50MHz, 100MHz}_{PULL_UP, PULL_DOWN},
  93:gpio.c        **** * GPIO_ANALOG}
  94:gpio.c        **** *//*-------------------------------------------------------------------------*/
  95:gpio.c        **** 
  96:gpio.c        **** void gpio_pin_cfg(GPIO_TypeDef *port_ptr, uint32_t pin, uint32_t configuration)
  97:gpio.c        **** {
 104              		.loc 1 97 0
 105              		.cfi_startproc
 106              		@ args = 0, pretend = 0, frame = 40
 107              		@ frame_needed = 1, uses_anonymous_args = 0
 108              		@ link register save eliminated.
 109 0000 80B4     		push	{r7}	@
 110              		.cfi_def_cfa_offset 4
 111              		.cfi_offset 7, -4
 112 0002 8BB0     		sub	sp, sp, #44	@,,
 113              		.cfi_def_cfa_offset 48
 114 0004 00AF     		add	r7, sp, #0	@,,
 115              		.cfi_def_cfa_register 7
 116 0006 F860     		str	r0, [r7, #12]	@ port_ptr, port_ptr
 117 0008 B960     		str	r1, [r7, #8]	@ pin, pin
 118 000a 7A60     		str	r2, [r7, #4]	@ configuration, configuration
  98:gpio.c        **** 	uint32_t moder, otyper, ospeedr, pupdr, afr, afrx;
  99:gpio.c        **** 
 100:gpio.c        **** 	moder = port_ptr->MODER;				// localize
 119              		.loc 1 100 0
 120 000c FB68     		ldr	r3, [r7, #12]	@ tmp147, port_ptr
 121 000e 1B68     		ldr	r3, [r3]	@ tmp148, port_ptr_4(D)->MODER
 122 0010 3B62     		str	r3, [r7, #32]	@ tmp148, moder
 101:gpio.c        **** 	moder &= ~(GPIO_MODER_mask << (pin * 2));	// clear current setting
 123              		.loc 1 101 0
 124 0012 BB68     		ldr	r3, [r7, #8]	@ tmp149, pin
 125 0014 5B00     		lsls	r3, r3, #1	@ D.5534, tmp149,
 126 0016 0322     		movs	r2, #3	@ tmp150,
 127 0018 02FA03F3 		lsl	r3, r2, r3	@ D.5535, tmp150, D.5534
ARM GAS  C:\Users\Bartek\AppData\Local\Temp\ccA6BKoT.s 			page 5


 128 001c DB43     		mvns	r3, r3	@ D.5535, D.5535
 129 001e 1A46     		mov	r2, r3	@ D.5534, D.5535
 130 0020 3B6A     		ldr	r3, [r7, #32]	@ tmp152, moder
 131 0022 1340     		ands	r3, r3, r2	@, tmp151, tmp152, D.5534
 132 0024 3B62     		str	r3, [r7, #32]	@ tmp151, moder
 102:gpio.c        **** 	moder |= (GPIO_GET_MODER(configuration) << (pin * 2));	// apply new setting
 133              		.loc 1 102 0
 134 0026 7B68     		ldr	r3, [r7, #4]	@ tmp153, configuration
 135 0028 03F00F02 		and	r2, r3, #15	@ D.5534, tmp153,
 136 002c BB68     		ldr	r3, [r7, #8]	@ tmp154, pin
 137 002e 5B00     		lsls	r3, r3, #1	@ D.5534, tmp154,
 138 0030 02FA03F3 		lsl	r3, r2, r3	@ D.5534, D.5534, D.5534
 139 0034 3A6A     		ldr	r2, [r7, #32]	@ tmp156, moder
 140 0036 1343     		orrs	r3, r3, r2	@, tmp155, D.5534, tmp156
 141 0038 3B62     		str	r3, [r7, #32]	@ tmp155, moder
 103:gpio.c        **** 	port_ptr->MODER = moder;				// save back
 142              		.loc 1 103 0
 143 003a FB68     		ldr	r3, [r7, #12]	@ tmp157, port_ptr
 144 003c 3A6A     		ldr	r2, [r7, #32]	@ tmp158, moder
 145 003e 1A60     		str	r2, [r3]	@ tmp158, port_ptr_4(D)->MODER
 104:gpio.c        **** 
 105:gpio.c        **** 	otyper = port_ptr->OTYPER;				// localize
 146              		.loc 1 105 0
 147 0040 FB68     		ldr	r3, [r7, #12]	@ tmp159, port_ptr
 148 0042 5B68     		ldr	r3, [r3, #4]	@ tmp160, port_ptr_4(D)->OTYPER
 149 0044 FB61     		str	r3, [r7, #28]	@ tmp160, otyper
 106:gpio.c        **** 	otyper &= ~(GPIO_OTYPER_mask << pin);	// clear current setting
 150              		.loc 1 106 0
 151 0046 0122     		movs	r2, #1	@ tmp161,
 152 0048 BB68     		ldr	r3, [r7, #8]	@ tmp162, pin
 153 004a 02FA03F3 		lsl	r3, r2, r3	@ D.5535, tmp161, tmp162
 154 004e DB43     		mvns	r3, r3	@ D.5535, D.5535
 155 0050 1A46     		mov	r2, r3	@ D.5534, D.5535
 156 0052 FB69     		ldr	r3, [r7, #28]	@ tmp164, otyper
 157 0054 1340     		ands	r3, r3, r2	@, tmp163, tmp164, D.5534
 158 0056 FB61     		str	r3, [r7, #28]	@ tmp163, otyper
 107:gpio.c        **** 	otyper |= (GPIO_GET_OTYPER(configuration) << pin);	// apply new setting
 159              		.loc 1 107 0
 160 0058 7B68     		ldr	r3, [r7, #4]	@ tmp165, configuration
 161 005a 1B09     		lsrs	r3, r3, #4	@ D.5534, tmp165,
 162 005c 03F00F02 		and	r2, r3, #15	@ D.5534, D.5534,
 163 0060 BB68     		ldr	r3, [r7, #8]	@ tmp166, pin
 164 0062 02FA03F3 		lsl	r3, r2, r3	@ D.5534, D.5534, tmp166
 165 0066 FA69     		ldr	r2, [r7, #28]	@ tmp168, otyper
 166 0068 1343     		orrs	r3, r3, r2	@, tmp167, D.5534, tmp168
 167 006a FB61     		str	r3, [r7, #28]	@ tmp167, otyper
 108:gpio.c        **** 	port_ptr->OTYPER = otyper;				// save back
 168              		.loc 1 108 0
 169 006c FB68     		ldr	r3, [r7, #12]	@ tmp169, port_ptr
 170 006e FA69     		ldr	r2, [r7, #28]	@ tmp170, otyper
 171 0070 5A60     		str	r2, [r3, #4]	@ tmp170, port_ptr_4(D)->OTYPER
 109:gpio.c        **** 
 110:gpio.c        **** 	ospeedr = port_ptr->OSPEEDR;				// localize
 172              		.loc 1 110 0
 173 0072 FB68     		ldr	r3, [r7, #12]	@ tmp171, port_ptr
 174 0074 9B68     		ldr	r3, [r3, #8]	@ tmp172, port_ptr_4(D)->OSPEEDR
 175 0076 BB61     		str	r3, [r7, #24]	@ tmp172, ospeedr
ARM GAS  C:\Users\Bartek\AppData\Local\Temp\ccA6BKoT.s 			page 6


 111:gpio.c        **** 	ospeedr &= ~(GPIO_OSPEEDR_mask << (pin * 2));	// clear current setting
 176              		.loc 1 111 0
 177 0078 BB68     		ldr	r3, [r7, #8]	@ tmp173, pin
 178 007a 5B00     		lsls	r3, r3, #1	@ D.5534, tmp173,
 179 007c 0322     		movs	r2, #3	@ tmp174,
 180 007e 02FA03F3 		lsl	r3, r2, r3	@ D.5535, tmp174, D.5534
 181 0082 DB43     		mvns	r3, r3	@ D.5535, D.5535
 182 0084 1A46     		mov	r2, r3	@ D.5534, D.5535
 183 0086 BB69     		ldr	r3, [r7, #24]	@ tmp176, ospeedr
 184 0088 1340     		ands	r3, r3, r2	@, tmp175, tmp176, D.5534
 185 008a BB61     		str	r3, [r7, #24]	@ tmp175, ospeedr
 112:gpio.c        **** 	ospeedr |= (GPIO_GET_OSPEEDR(configuration) << (pin * 2));	// apply new setting
 186              		.loc 1 112 0
 187 008c 7B68     		ldr	r3, [r7, #4]	@ tmp177, configuration
 188 008e 1B0A     		lsrs	r3, r3, #8	@ D.5534, tmp177,
 189 0090 03F00F02 		and	r2, r3, #15	@ D.5534, D.5534,
 190 0094 BB68     		ldr	r3, [r7, #8]	@ tmp178, pin
 191 0096 5B00     		lsls	r3, r3, #1	@ D.5534, tmp178,
 192 0098 02FA03F3 		lsl	r3, r2, r3	@ D.5534, D.5534, D.5534
 193 009c BA69     		ldr	r2, [r7, #24]	@ tmp180, ospeedr
 194 009e 1343     		orrs	r3, r3, r2	@, tmp179, D.5534, tmp180
 195 00a0 BB61     		str	r3, [r7, #24]	@ tmp179, ospeedr
 113:gpio.c        **** 	port_ptr->OSPEEDR = ospeedr;				// save back
 196              		.loc 1 113 0
 197 00a2 FB68     		ldr	r3, [r7, #12]	@ tmp181, port_ptr
 198 00a4 BA69     		ldr	r2, [r7, #24]	@ tmp182, ospeedr
 199 00a6 9A60     		str	r2, [r3, #8]	@ tmp182, port_ptr_4(D)->OSPEEDR
 114:gpio.c        **** 
 115:gpio.c        **** 	pupdr = port_ptr->PUPDR;				// localize
 200              		.loc 1 115 0
 201 00a8 FB68     		ldr	r3, [r7, #12]	@ tmp183, port_ptr
 202 00aa DB68     		ldr	r3, [r3, #12]	@ tmp184, port_ptr_4(D)->PUPDR
 203 00ac 7B61     		str	r3, [r7, #20]	@ tmp184, pupdr
 116:gpio.c        **** 	pupdr &= ~(GPIO_PUPDR_mask << (pin * 2));	// clear current setting
 204              		.loc 1 116 0
 205 00ae BB68     		ldr	r3, [r7, #8]	@ tmp185, pin
 206 00b0 5B00     		lsls	r3, r3, #1	@ D.5534, tmp185,
 207 00b2 0322     		movs	r2, #3	@ tmp186,
 208 00b4 02FA03F3 		lsl	r3, r2, r3	@ D.5535, tmp186, D.5534
 209 00b8 DB43     		mvns	r3, r3	@ D.5535, D.5535
 210 00ba 1A46     		mov	r2, r3	@ D.5534, D.5535
 211 00bc 7B69     		ldr	r3, [r7, #20]	@ tmp188, pupdr
 212 00be 1340     		ands	r3, r3, r2	@, tmp187, tmp188, D.5534
 213 00c0 7B61     		str	r3, [r7, #20]	@ tmp187, pupdr
 117:gpio.c        **** 	pupdr |= (GPIO_GET_PUPDR(configuration) << (pin * 2));	// apply new setting
 214              		.loc 1 117 0
 215 00c2 7B68     		ldr	r3, [r7, #4]	@ tmp189, configuration
 216 00c4 1B0B     		lsrs	r3, r3, #12	@ D.5534, tmp189,
 217 00c6 03F00F02 		and	r2, r3, #15	@ D.5534, D.5534,
 218 00ca BB68     		ldr	r3, [r7, #8]	@ tmp190, pin
 219 00cc 5B00     		lsls	r3, r3, #1	@ D.5534, tmp190,
 220 00ce 02FA03F3 		lsl	r3, r2, r3	@ D.5534, D.5534, D.5534
 221 00d2 7A69     		ldr	r2, [r7, #20]	@ tmp192, pupdr
 222 00d4 1343     		orrs	r3, r3, r2	@, tmp191, D.5534, tmp192
 223 00d6 7B61     		str	r3, [r7, #20]	@ tmp191, pupdr
 118:gpio.c        **** 	port_ptr->PUPDR = pupdr;				// save back
 224              		.loc 1 118 0
ARM GAS  C:\Users\Bartek\AppData\Local\Temp\ccA6BKoT.s 			page 7


 225 00d8 FB68     		ldr	r3, [r7, #12]	@ tmp193, port_ptr
 226 00da 7A69     		ldr	r2, [r7, #20]	@ tmp194, pupdr
 227 00dc DA60     		str	r2, [r3, #12]	@ tmp194, port_ptr_4(D)->PUPDR
 119:gpio.c        **** 
 120:gpio.c        **** 	if (pin < 8)							// determine which AFR register should be used
 228              		.loc 1 120 0
 229 00de BB68     		ldr	r3, [r7, #8]	@ tmp195, pin
 230 00e0 072B     		cmp	r3, #7	@ tmp195,
 231 00e2 02D8     		bhi	.L5	@,
 121:gpio.c        **** 		afrx = 0;							// AFRL - pins [0; 7]
 232              		.loc 1 121 0
 233 00e4 0023     		movs	r3, #0	@ tmp196,
 234 00e6 7B62     		str	r3, [r7, #36]	@ tmp196, afrx
 235 00e8 04E0     		b	.L6	@
 236              	.L5:
 122:gpio.c        **** 	else
 123:gpio.c        **** 	{
 124:gpio.c        **** 		afrx = 1;							// AFRH - pins [8; 15]
 237              		.loc 1 124 0
 238 00ea 0123     		movs	r3, #1	@ tmp197,
 239 00ec 7B62     		str	r3, [r7, #36]	@ tmp197, afrx
 125:gpio.c        **** 		pin -= 8;							// trim pin number
 240              		.loc 1 125 0
 241 00ee BB68     		ldr	r3, [r7, #8]	@ tmp199, pin
 242 00f0 083B     		subs	r3, r3, #8	@ tmp198, tmp199,
 243 00f2 BB60     		str	r3, [r7, #8]	@ tmp198, pin
 244              	.L6:
 126:gpio.c        **** 	}
 127:gpio.c        **** 
 128:gpio.c        **** 	afr = port_ptr->AFR[afrx];				// localize
 245              		.loc 1 128 0
 246 00f4 FB68     		ldr	r3, [r7, #12]	@ tmp200, port_ptr
 247 00f6 7A6A     		ldr	r2, [r7, #36]	@ tmp202, afrx
 248 00f8 0832     		adds	r2, r2, #8	@ tmp201, tmp202,
 249 00fa 53F82230 		ldr	r3, [r3, r2, lsl #2]	@ tmp203, port_ptr_4(D)->AFR
 250 00fe 3B61     		str	r3, [r7, #16]	@ tmp203, afr
 129:gpio.c        **** 	afr &= ~(GPIO_AFRx_mask << (pin * 4));	// clear current setting
 251              		.loc 1 129 0
 252 0100 BB68     		ldr	r3, [r7, #8]	@ tmp204, pin
 253 0102 9B00     		lsls	r3, r3, #2	@ D.5534, tmp204,
 254 0104 0F22     		movs	r2, #15	@ tmp205,
 255 0106 02FA03F3 		lsl	r3, r2, r3	@ D.5535, tmp205, D.5534
 256 010a DB43     		mvns	r3, r3	@ D.5535, D.5535
 257 010c 1A46     		mov	r2, r3	@ D.5534, D.5535
 258 010e 3B69     		ldr	r3, [r7, #16]	@ tmp207, afr
 259 0110 1340     		ands	r3, r3, r2	@, tmp206, tmp207, D.5534
 260 0112 3B61     		str	r3, [r7, #16]	@ tmp206, afr
 130:gpio.c        **** 	afr |= (GPIO_GET_AFR(configuration) << (pin * 4));	// apply new setting
 261              		.loc 1 130 0
 262 0114 7B68     		ldr	r3, [r7, #4]	@ tmp208, configuration
 263 0116 1B0C     		lsrs	r3, r3, #16	@ D.5534, tmp208,
 264 0118 03F00F02 		and	r2, r3, #15	@ D.5534, D.5534,
 265 011c BB68     		ldr	r3, [r7, #8]	@ tmp209, pin
 266 011e 9B00     		lsls	r3, r3, #2	@ D.5534, tmp209,
 267 0120 02FA03F3 		lsl	r3, r2, r3	@ D.5534, D.5534, D.5534
 268 0124 3A69     		ldr	r2, [r7, #16]	@ tmp211, afr
 269 0126 1343     		orrs	r3, r3, r2	@, tmp210, D.5534, tmp211
ARM GAS  C:\Users\Bartek\AppData\Local\Temp\ccA6BKoT.s 			page 8


 270 0128 3B61     		str	r3, [r7, #16]	@ tmp210, afr
 131:gpio.c        **** 	port_ptr->AFR[afrx] = afr;				// save back
 271              		.loc 1 131 0
 272 012a FB68     		ldr	r3, [r7, #12]	@ tmp212, port_ptr
 273 012c 7A6A     		ldr	r2, [r7, #36]	@ tmp214, afrx
 274 012e 0832     		adds	r2, r2, #8	@ tmp213, tmp214,
 275 0130 3969     		ldr	r1, [r7, #16]	@ tmp215, afr
 276 0132 43F82210 		str	r1, [r3, r2, lsl #2]	@ tmp215, port_ptr_4(D)->AFR
 132:gpio.c        **** 
 133:gpio.c        **** }
 277              		.loc 1 133 0
 278 0136 00BF     		nop
 279 0138 2C37     		adds	r7, r7, #44	@,,
 280              		.cfi_def_cfa_offset 4
 281 013a BD46     		mov	sp, r7	@,
 282              		.cfi_def_cfa_register 13
 283              		@ sp needed	@
 284 013c 5DF8047B 		ldr	r7, [sp], #4	@,
 285              		.cfi_restore 7
 286              		.cfi_def_cfa_offset 0
 287 0140 7047     		bx	lr	@
 288              		.cfi_endproc
 289              	.LFE111:
 290              		.size	gpio_pin_cfg, .-gpio_pin_cfg
 291 0142 00BF     		.text
 292              	.Letext0:
 293              		.file 2 "g:\\stm32toolchain\\gnu-arm\\5.2_2015q4\\arm-none-eabi\\include\\machine\\_default_types.
 294              		.file 3 "g:\\stm32toolchain\\gnu-arm\\5.2_2015q4\\arm-none-eabi\\include\\sys\\_stdint.h"
 295              		.file 4 "inc/stm32f4xx.h"
 296              		.file 5 "inc/core_cm4.h"