ARM GAS  C:\Users\Bartek\AppData\Local\Temp\ccL6GCh7.s 			page 1


   1              		.syntax unified
   2              		.cpu cortex-m4
   3              		.eabi_attribute 27, 1	@ Tag_ABI_HardFP_use
   4              		.eabi_attribute 28, 1	@ Tag_ABI_VFP_args
   5              		.fpu fpv4-sp-d16
   6              		.eabi_attribute 23, 1	@ Tag_ABI_FP_number_model
   7              		.eabi_attribute 24, 1	@ Tag_ABI_align8_needed
   8              		.eabi_attribute 25, 1	@ Tag_ABI_align8_preserved
   9              		.eabi_attribute 26, 1	@ Tag_ABI_enum_size
  10              		.eabi_attribute 30, 6	@ Tag_ABI_optimization_goals
  11              		.eabi_attribute 34, 1	@ Tag_CPU_unaligned_access
  12              		.eabi_attribute 18, 4	@ Tag_ABI_PCS_wchar_t
  13              		.file	"main.c"
  14              	@ GNU C89 (GNU Tools for ARM Embedded Processors) version 5.2.1 20151202 (release) [ARM/embedded-5-
  15              	@	compiled by GNU C version 4.7.4, GMP version 4.3.2, MPFR version 2.4.2, MPC version 0.8.1
  16              	@ GGC heuristics: --param ggc-min-expand=100 --param ggc-min-heapsize=131072
  17              	@ options passed:  -I . -I inc -imultilib armv7e-m/fpu
  18              	@ -iprefix g:\stm32toolchain\gnu-arm\5.2_2015q4\bin\../lib/gcc/arm-none-eabi/5.2.1/
  19              	@ -isysroot g:\stm32toolchain\gnu-arm\5.2_2015q4\bin\../arm-none-eabi
  20              	@ -MD out/main.d -MF out/main.d -MP -MQ out/main.o -D__USES_INITFINI__
  21              	@ -D STM32F4XX main.c -mcpu=cortex-m4 -mthumb -mfloat-abi=hard
  22              	@ -mfpu=fpv4-sp-d16 -auxbase-strip out/main.o -g -ggdb3 -O0 -Wall
  23              	@ -Wstrict-prototypes -Wextra -std=gnu90 -ffast-math -ffunction-sections
  24              	@ -fdata-sections -fverbose-asm
  25              	@ options enabled:  -faggressive-loop-optimizations -fassociative-math
  26              	@ -fauto-inc-dec -fchkp-check-incomplete-type -fchkp-check-read
  27              	@ -fchkp-check-write -fchkp-instrument-calls -fchkp-narrow-bounds
  28              	@ -fchkp-optimize -fchkp-store-bounds -fchkp-use-static-bounds
  29              	@ -fchkp-use-static-const-bounds -fchkp-use-wrappers -fcommon
  30              	@ -fcx-limited-range -fdata-sections -fdelete-null-pointer-checks
  31              	@ -fdwarf2-cfi-asm -fearly-inlining -feliminate-unused-debug-types
  32              	@ -ffinite-math-only -ffunction-cse -ffunction-sections -fgcse-lm
  33              	@ -fgnu-runtime -fgnu-unique -fident -finline-atomics -fira-hoist-pressure
  34              	@ -fira-share-save-slots -fira-share-spill-slots -fivopts
  35              	@ -fkeep-static-consts -fleading-underscore -flifetime-dse
  36              	@ -flto-odr-type-merging -fmerge-debug-strings -fpeephole
  37              	@ -fprefetch-loop-arrays -freciprocal-math -freg-struct-return
  38              	@ -fsched-critical-path-heuristic -fsched-dep-count-heuristic
  39              	@ -fsched-group-heuristic -fsched-interblock -fsched-last-insn-heuristic
  40              	@ -fsched-rank-heuristic -fsched-spec -fsched-spec-insn-heuristic
  41              	@ -fsched-stalled-insns-dep -fsemantic-interposition -fshow-column
  42              	@ -fsplit-ivs-in-unroller -fstdarg-opt -fstrict-volatile-bitfields
  43              	@ -fsync-libcalls -ftree-coalesce-vars -ftree-cselim -ftree-forwprop
  44              	@ -ftree-loop-if-convert -ftree-loop-im -ftree-loop-ivcanon
  45              	@ -ftree-loop-optimize -ftree-parallelize-loops= -ftree-phiprop
  46              	@ -ftree-reassoc -ftree-scev-cprop -funit-at-a-time
  47              	@ -funsafe-math-optimizations -fverbose-asm -fzero-initialized-in-bss
  48              	@ -masm-syntax-unified -mlittle-endian -mpic-data-is-text-relative
  49              	@ -msched-prolog -mthumb -munaligned-access -mvectorize-with-neon-quad
  50              	
  51              		.text
  52              	.Ltext0:
  53              		.cfi_sections	.debug_frame
  54              		.section	.text.main,"ax",%progbits
  55              		.align	2
  56              		.global	main
  57              		.thumb
ARM GAS  C:\Users\Bartek\AppData\Local\Temp\ccL6GCh7.s 			page 2


  58              		.thumb_func
  59              		.type	main, %function
  60              	main:
  61              	.LFB110:
  62              		.file 1 "main.c"
   1:main.c        **** /** \file main.c
   2:main.c        ****  * \brief Sample STM32F4 project
   3:main.c        ****  * \details This file holds a very basic code for STM32F407VG. This code
   4:main.c        ****  * enables the FPU, all GPIO ports, configures Flash wait-states and enables
   5:main.c        ****  * the PLL to achieve the highest allowed frequency for STM32F407VG (168MHz).
   6:main.c        ****  * Main code block just blinks the LED. The LED port and pin are defined in
   7:main.c        ****  * config.h file. Target core frequency and quartz crystal resonator
   8:main.c        ****  * frequency are defined there as well.
   9:main.c        ****  *
  10:main.c        ****  * \author Freddie Chopin, http://www.freddiechopin.info/
  11:main.c        ****  * \date 2012-03-23
  12:main.c        ****  */
  13:main.c        **** 
  14:main.c        **** /******************************************************************************
  15:main.c        **** * project: stm32f4_blink_led
  16:main.c        **** * chip: STM32F407VG
  17:main.c        **** * compiler: arm-none-eabi-gcc (GNU Tools for ARM Embedded Processors) 4.6.2
  18:main.c        **** * 	20110921 (release) [ARM/embedded-4_6-branch revision 182083]
  19:main.c        **** *
  20:main.c        **** * prefix: (none)
  21:main.c        **** *
  22:main.c        **** * available global functions:
  23:main.c        **** * 	int main(void)
  24:main.c        **** *
  25:main.c        **** * available local functions:
  26:main.c        **** * 	static void flash_latency(uint32_t frequency)
  27:main.c        **** * 	static void fpu_enable(void)
  28:main.c        **** * 	static uint32_t pll_start(uint32_t crystal, uint32_t frequency)
  29:main.c        **** * 	static void system_init(void)
  30:main.c        **** *
  31:main.c        **** * available interrupt handlers:
  32:main.c        **** ******************************************************************************/
  33:main.c        **** 
  34:main.c        **** /*
  35:main.c        **** +=============================================================================+
  36:main.c        **** | includes
  37:main.c        **** +=============================================================================+
  38:main.c        **** */
  39:main.c        **** 
  40:main.c        **** #include <stdint.h>
  41:main.c        **** 
  42:main.c        **** #include "inc/stm32f4xx.h"
  43:main.c        **** 
  44:main.c        **** #include "config.h"
  45:main.c        **** 
  46:main.c        **** #include "hdr/hdr_rcc.h"
  47:main.c        **** #include "hdr/hdr_gpio.h"
  48:main.c        **** 
  49:main.c        **** #include "gpio.h"
  50:main.c        **** 
  51:main.c        **** /*
  52:main.c        **** +=============================================================================+
ARM GAS  C:\Users\Bartek\AppData\Local\Temp\ccL6GCh7.s 			page 3


  53:main.c        **** | module variables
  54:main.c        **** +=============================================================================+
  55:main.c        **** */
  56:main.c        **** 
  57:main.c        **** /*
  58:main.c        **** +=============================================================================+
  59:main.c        **** | local functions' declarations
  60:main.c        **** +=============================================================================+
  61:main.c        **** */
  62:main.c        **** 
  63:main.c        **** static void flash_latency(uint32_t frequency);
  64:main.c        **** static void fpu_enable(void);
  65:main.c        **** static uint32_t pll_start(uint32_t crystal, uint32_t frequency);
  66:main.c        **** static void system_init(void);
  67:main.c        **** 
  68:main.c        **** /*
  69:main.c        **** +=============================================================================+
  70:main.c        **** | global functions
  71:main.c        **** +=============================================================================+
  72:main.c        **** */
  73:main.c        **** 
  74:main.c        **** /*------------------------------------------------------------------------*//**
  75:main.c        **** * \brief main code block
  76:main.c        **** * \details Call some static initialization functions and blink the led with
  77:main.c        **** * frequency defined via count_max variable.
  78:main.c        **** *//*-------------------------------------------------------------------------*/
  79:main.c        **** 
  80:main.c        **** int main(void)
  81:main.c        **** {
  63              		.loc 1 81 0
  64              		.cfi_startproc
  65              		@ args = 0, pretend = 0, frame = 8
  66              		@ frame_needed = 1, uses_anonymous_args = 0
  67 0000 80B5     		push	{r7, lr}	@
  68              		.cfi_def_cfa_offset 8
  69              		.cfi_offset 7, -8
  70              		.cfi_offset 14, -4
  71 0002 82B0     		sub	sp, sp, #8	@,,
  72              		.cfi_def_cfa_offset 16
  73 0004 00AF     		add	r7, sp, #0	@,,
  74              		.cfi_def_cfa_register 7
  82:main.c        **** 	volatile uint32_t count, count_max = 10000000;
  75              		.loc 1 82 0
  76 0006 154B     		ldr	r3, .L7	@ tmp121,
  77 0008 3B60     		str	r3, [r7]	@ tmp121, count_max
  83:main.c        **** 
  84:main.c        **** 	fpu_enable();
  78              		.loc 1 84 0
  79 000a FFF7FEFF 		bl	fpu_enable	@
  85:main.c        **** 	system_init();
  80              		.loc 1 85 0
  81 000e FFF7FEFF 		bl	system_init	@
  86:main.c        **** 	pll_start(CRYSTAL, FREQUENCY);
  82              		.loc 1 86 0
  83 0012 1349     		ldr	r1, .L7+4	@,
  84 0014 1348     		ldr	r0, .L7+8	@,
  85 0016 FFF7FEFF 		bl	pll_start	@
ARM GAS  C:\Users\Bartek\AppData\Local\Temp\ccL6GCh7.s 			page 4


  87:main.c        **** 
  88:main.c        **** 	gpio_pin_cfg(LED_GPIO, LED_pin, GPIO_OUT_PP_25MHz);
  86              		.loc 1 88 0
  87 001a 40F20112 		movw	r2, #257	@,
  88 001e 0D21     		movs	r1, #13	@,
  89 0020 1148     		ldr	r0, .L7+12	@,
  90 0022 FFF7FEFF 		bl	gpio_pin_cfg	@
  91              	.L6:
  89:main.c        **** 
  90:main.c        **** 	while (1)
  91:main.c        **** 	{
  92:main.c        **** 		for (count = 0; count < count_max; count++);	// delay
  92              		.loc 1 92 0
  93 0026 0023     		movs	r3, #0	@ tmp122,
  94 0028 7B60     		str	r3, [r7, #4]	@ tmp122, count
  95 002a 02E0     		b	.L2	@
  96              	.L3:
  97              		.loc 1 92 0 is_stmt 0 discriminator 3
  98 002c 7B68     		ldr	r3, [r7, #4]	@ D.5596, count
  99 002e 0133     		adds	r3, r3, #1	@ D.5596, D.5596,
 100 0030 7B60     		str	r3, [r7, #4]	@ D.5596, count
 101              	.L2:
 102              		.loc 1 92 0 discriminator 1
 103 0032 7A68     		ldr	r2, [r7, #4]	@ D.5596, count
 104 0034 3B68     		ldr	r3, [r7]	@ D.5596, count_max
 105 0036 9A42     		cmp	r2, r3	@ D.5596, D.5596
 106 0038 F8D3     		bcc	.L3	@,
  93:main.c        **** 		LED_bb = 1;
 107              		.loc 1 93 0 is_stmt 1
 108 003a 0C4B     		ldr	r3, .L7+16	@ D.5597,
 109 003c 0122     		movs	r2, #1	@ tmp123,
 110 003e 1A60     		str	r2, [r3]	@ tmp123, *_13
  94:main.c        **** 		for (count = 0; count < count_max; count++);	// delay
 111              		.loc 1 94 0
 112 0040 0023     		movs	r3, #0	@ tmp124,
 113 0042 7B60     		str	r3, [r7, #4]	@ tmp124, count
 114 0044 02E0     		b	.L4	@
 115              	.L5:
 116              		.loc 1 94 0 is_stmt 0 discriminator 3
 117 0046 7B68     		ldr	r3, [r7, #4]	@ D.5596, count
 118 0048 0133     		adds	r3, r3, #1	@ D.5596, D.5596,
 119 004a 7B60     		str	r3, [r7, #4]	@ D.5596, count
 120              	.L4:
 121              		.loc 1 94 0 discriminator 1
 122 004c 7A68     		ldr	r2, [r7, #4]	@ D.5596, count
 123 004e 3B68     		ldr	r3, [r7]	@ D.5596, count_max
 124 0050 9A42     		cmp	r2, r3	@ D.5596, D.5596
 125 0052 F8D3     		bcc	.L5	@,
  95:main.c        **** 		LED_bb = 0;
 126              		.loc 1 95 0 is_stmt 1
 127 0054 054B     		ldr	r3, .L7+16	@ D.5597,
 128 0056 0022     		movs	r2, #0	@ tmp125,
 129 0058 1A60     		str	r2, [r3]	@ tmp125, *_21
  96:main.c        **** 	}
 130              		.loc 1 96 0
 131 005a E4E7     		b	.L6	@
 132              	.L8:
ARM GAS  C:\Users\Bartek\AppData\Local\Temp\ccL6GCh7.s 			page 5


 133              		.align	2
 134              	.L7:
 135 005c 80969800 		.word	10000000
 136 0060 007A030A 		.word	168000000
 137 0064 00127A00 		.word	8000000
 138 0068 00180240 		.word	1073879040
 139 006c B4024342 		.word	1111687860
 140              		.cfi_endproc
 141              	.LFE110:
 142              		.size	main, .-main
 143              		.section	.text.flash_latency,"ax",%progbits
 144              		.align	2
 145              		.thumb
 146              		.thumb_func
 147              		.type	flash_latency, %function
 148              	flash_latency:
 149              	.LFB111:
  97:main.c        **** }
  98:main.c        **** 
  99:main.c        **** /*
 100:main.c        **** +=============================================================================+
 101:main.c        **** | local functions
 102:main.c        **** +=============================================================================+
 103:main.c        **** */
 104:main.c        **** 
 105:main.c        **** /*------------------------------------------------------------------------*//**
 106:main.c        **** * \brief Configures Flash latency.
 107:main.c        **** * \details Configures Flash latency (wait-states) which allows the chip to run
 108:main.c        **** * at higher speeds. The constants used for calculations are valid when chip's
 109:main.c        **** * voltage is in 2.7V to 3.6V range.
 110:main.c        **** *
 111:main.c        **** * \param [in] frequency defines the target frequency of the core
 112:main.c        **** *//*-------------------------------------------------------------------------*/
 113:main.c        **** 
 114:main.c        **** static void flash_latency(uint32_t frequency)
 115:main.c        **** {
 150              		.loc 1 115 0
 151              		.cfi_startproc
 152              		@ args = 0, pretend = 0, frame = 16
 153              		@ frame_needed = 1, uses_anonymous_args = 0
 154              		@ link register save eliminated.
 155 0000 80B4     		push	{r7}	@
 156              		.cfi_def_cfa_offset 4
 157              		.cfi_offset 7, -4
 158 0002 85B0     		sub	sp, sp, #20	@,,
 159              		.cfi_def_cfa_offset 24
 160 0004 00AF     		add	r7, sp, #0	@,,
 161              		.cfi_def_cfa_register 7
 162 0006 7860     		str	r0, [r7, #4]	@ frequency, frequency
 116:main.c        **** 	uint32_t wait_states;
 117:main.c        **** 
 118:main.c        **** 	wait_states = frequency / 30000000ul;	// calculate wait_states (30M is valid for 2.7V to 3.6V volt
 163              		.loc 1 118 0
 164 0008 7B68     		ldr	r3, [r7, #4]	@ tmp116, frequency
 165 000a DB09     		lsrs	r3, r3, #7	@ tmp117, tmp116,
 166 000c 0D4A     		ldr	r2, .L10	@ tmp119,
 167 000e A2FB0323 		umull	r2, r3, r2, r3	@ tmp125, tmp118, tmp119, tmp117
ARM GAS  C:\Users\Bartek\AppData\Local\Temp\ccL6GCh7.s 			page 6


 168 0012 9B0A     		lsrs	r3, r3, #10	@ tmp115, tmp118,
 169 0014 FB60     		str	r3, [r7, #12]	@ tmp115, wait_states
 119:main.c        **** 	wait_states &= 7;						// trim to max allowed value - 7
 170              		.loc 1 119 0
 171 0016 FB68     		ldr	r3, [r7, #12]	@ tmp121, wait_states
 172 0018 03F00703 		and	r3, r3, #7	@ tmp120, tmp121,
 173 001c FB60     		str	r3, [r7, #12]	@ tmp120, wait_states
 120:main.c        **** 
 121:main.c        **** 	FLASH->ACR = wait_states;				// set wait_states, disable all caches and prefetch
 174              		.loc 1 121 0
 175 001e 0A4A     		ldr	r2, .L10+4	@ D.5598,
 176 0020 FB68     		ldr	r3, [r7, #12]	@ tmp122, wait_states
 177 0022 1360     		str	r3, [r2]	@ tmp122, _4->ACR
 122:main.c        **** 	FLASH->ACR = FLASH_ACR_DCRST | FLASH_ACR_ICRST | wait_states;	// reset caches
 178              		.loc 1 122 0
 179 0024 084A     		ldr	r2, .L10+4	@ D.5598,
 180 0026 FB68     		ldr	r3, [r7, #12]	@ tmp123, wait_states
 181 0028 43F4C053 		orr	r3, r3, #6144	@ D.5599, tmp123,
 182 002c 1360     		str	r3, [r2]	@ D.5599, _7->ACR
 123:main.c        **** 	FLASH->ACR = FLASH_ACR_DCEN | FLASH_ACR_ICEN | FLASH_ACR_PRFTEN | wait_states;	// enable caches an
 183              		.loc 1 123 0
 184 002e 064A     		ldr	r2, .L10+4	@ D.5598,
 185 0030 FB68     		ldr	r3, [r7, #12]	@ tmp124, wait_states
 186 0032 43F4E063 		orr	r3, r3, #1792	@ D.5599, tmp124,
 187 0036 1360     		str	r3, [r2]	@ D.5599, _10->ACR
 124:main.c        **** }
 188              		.loc 1 124 0
 189 0038 00BF     		nop
 190 003a 1437     		adds	r7, r7, #20	@,,
 191              		.cfi_def_cfa_offset 4
 192 003c BD46     		mov	sp, r7	@,
 193              		.cfi_def_cfa_register 13
 194              		@ sp needed	@
 195 003e 5DF8047B 		ldr	r7, [sp], #4	@,
 196              		.cfi_restore 7
 197              		.cfi_def_cfa_offset 0
 198 0042 7047     		bx	lr	@
 199              	.L11:
 200              		.align	2
 201              	.L10:
 202 0044 C7541E01 		.word	18764999
 203 0048 003C0240 		.word	1073888256
 204              		.cfi_endproc
 205              	.LFE111:
 206              		.size	flash_latency, .-flash_latency
 207              		.section	.text.fpu_enable,"ax",%progbits
 208              		.align	2
 209              		.thumb
 210              		.thumb_func
 211              		.type	fpu_enable, %function
 212              	fpu_enable:
 213              	.LFB112:
 125:main.c        **** 
 126:main.c        **** /*------------------------------------------------------------------------*//**
 127:main.c        **** * \brief Enables FPU
 128:main.c        **** * \details Enables FPU in Cortex-M4 for both privileged and user mode. This is
 129:main.c        **** * done by enabling CP10 and CP11 coprocessors in CPACR register (possible only
ARM GAS  C:\Users\Bartek\AppData\Local\Temp\ccL6GCh7.s 			page 7


 130:main.c        **** * when in privileged mode).
 131:main.c        **** *//*-------------------------------------------------------------------------*/
 132:main.c        **** 
 133:main.c        **** static void fpu_enable(void)
 134:main.c        **** {
 214              		.loc 1 134 0
 215              		.cfi_startproc
 216              		@ args = 0, pretend = 0, frame = 0
 217              		@ frame_needed = 1, uses_anonymous_args = 0
 218              		@ link register save eliminated.
 219 0000 80B4     		push	{r7}	@
 220              		.cfi_def_cfa_offset 4
 221              		.cfi_offset 7, -4
 222 0002 00AF     		add	r7, sp, #0	@,,
 223              		.cfi_def_cfa_register 7
 135:main.c        **** #if (__FPU_PRESENT == 1) && (__FPU_USED == 1)
 136:main.c        **** 	SCB->CPACR |= ((3UL << 10*2)|(3UL << 11*2));	// set CP10 and CP11 Full Access
 224              		.loc 1 136 0
 225 0004 064A     		ldr	r2, .L13	@ D.5600,
 226 0006 064B     		ldr	r3, .L13	@ D.5600,
 227 0008 D3F88830 		ldr	r3, [r3, #136]	@ D.5601, _2->CPACR
 228 000c 43F47003 		orr	r3, r3, #15728640	@ D.5601, D.5601,
 229 0010 C2F88830 		str	r3, [r2, #136]	@ D.5601, _1->CPACR
 137:main.c        **** #endif
 138:main.c        **** }
 230              		.loc 1 138 0
 231 0014 00BF     		nop
 232 0016 BD46     		mov	sp, r7	@,
 233              		.cfi_def_cfa_register 13
 234              		@ sp needed	@
 235 0018 5DF8047B 		ldr	r7, [sp], #4	@,
 236              		.cfi_restore 7
 237              		.cfi_def_cfa_offset 0
 238 001c 7047     		bx	lr	@
 239              	.L14:
 240 001e 00BF     		.align	2
 241              	.L13:
 242 0020 00ED00E0 		.word	-536810240
 243              		.cfi_endproc
 244              	.LFE112:
 245              		.size	fpu_enable, .-fpu_enable
 246              		.section	.text.pll_start,"ax",%progbits
 247              		.align	2
 248              		.thumb
 249              		.thumb_func
 250              		.type	pll_start, %function
 251              	pll_start:
 252              	.LFB113:
 139:main.c        **** 
 140:main.c        **** /*------------------------------------------------------------------------*//**
 141:main.c        **** * \brief Starts the PLL
 142:main.c        **** * \details Configure and enable PLL to achieve some frequency with some crystal.
 143:main.c        **** * Before the speed change Flash latency is configured via flash_latency(). PLL
 144:main.c        **** * parameters are based on both function parameters. The PLL is set up,
 145:main.c        **** * started and connected. AHB clock ratio is set to 1:1 with core clock, APB1 -
 146:main.c        **** * 1:4 (max 42MHz), APB2 - 1:2 (max 84MHz). USB OTG, RNG and SDIO clock is set
 147:main.c        **** * to (VCO output / 9) (max 48MHz).
ARM GAS  C:\Users\Bartek\AppData\Local\Temp\ccL6GCh7.s 			page 8


 148:main.c        **** *
 149:main.c        **** * \param [in] crystal is the frequency of the crystal resonator connected to the
 150:main.c        **** * STM32F407VG
 151:main.c        **** * \param [in] frequency is the desired target frequency after enabling the PLL
 152:main.c        **** *
 153:main.c        **** * \return real frequency that was set
 154:main.c        **** *//*-------------------------------------------------------------------------*/
 155:main.c        **** 
 156:main.c        **** static uint32_t pll_start(uint32_t crystal, uint32_t frequency)
 157:main.c        **** {
 253              		.loc 1 157 0
 254              		.cfi_startproc
 255              		@ args = 0, pretend = 0, frame = 48
 256              		@ frame_needed = 1, uses_anonymous_args = 0
 257 0000 80B5     		push	{r7, lr}	@
 258              		.cfi_def_cfa_offset 8
 259              		.cfi_offset 7, -8
 260              		.cfi_offset 14, -4
 261 0002 8CB0     		sub	sp, sp, #48	@,,
 262              		.cfi_def_cfa_offset 56
 263 0004 00AF     		add	r7, sp, #0	@,,
 264              		.cfi_def_cfa_register 7
 265 0006 7860     		str	r0, [r7, #4]	@ crystal, crystal
 266 0008 3960     		str	r1, [r7]	@ frequency, frequency
 158:main.c        **** 	uint32_t div, mul, div_core, vco_input_frequency, vco_output_frequency, frequency_core;
 159:main.c        **** 	uint32_t best_div = 0, best_mul = 0, best_div_core = 0, best_frequency_core = 0;
 267              		.loc 1 159 0
 268 000a 0023     		movs	r3, #0	@ tmp134,
 269 000c 3B62     		str	r3, [r7, #32]	@ tmp134, best_div
 270 000e 0023     		movs	r3, #0	@ tmp135,
 271 0010 FB61     		str	r3, [r7, #28]	@ tmp135, best_mul
 272 0012 0023     		movs	r3, #0	@ tmp136,
 273 0014 BB61     		str	r3, [r7, #24]	@ tmp136, best_div_core
 274 0016 0023     		movs	r3, #0	@ tmp137,
 275 0018 7B61     		str	r3, [r7, #20]	@ tmp137, best_frequency_core
 160:main.c        **** 
 161:main.c        **** 	RCC_CR_HSEON_bb = 1;					// enable HSE clock
 276              		.loc 1 161 0
 277 001a 434B     		ldr	r3, .L37	@ D.5602,
 278 001c 0122     		movs	r2, #1	@ tmp138,
 279 001e 1A60     		str	r2, [r3]	@ tmp138, *_32
 162:main.c        **** 	flash_latency(frequency);				// configure Flash latency for desired frequency
 280              		.loc 1 162 0
 281 0020 3868     		ldr	r0, [r7]	@, frequency
 282 0022 FFF7FEFF 		bl	flash_latency	@
 163:main.c        **** 
 164:main.c        **** 	for (div = 2; div <= 63; div++)			// PLLM in [2; 63]
 283              		.loc 1 164 0
 284 0026 0223     		movs	r3, #2	@ tmp139,
 285 0028 FB62     		str	r3, [r7, #44]	@ tmp139, div
 286 002a 4AE0     		b	.L16	@
 287              	.L29:
 165:main.c        **** 	{
 166:main.c        **** 		vco_input_frequency = crystal / div;
 288              		.loc 1 166 0
 289 002c 7A68     		ldr	r2, [r7, #4]	@ tmp142, crystal
 290 002e FB6A     		ldr	r3, [r7, #44]	@ tmp143, div
ARM GAS  C:\Users\Bartek\AppData\Local\Temp\ccL6GCh7.s 			page 9


 291 0030 B2FBF3F3 		udiv	r3, r2, r3	@ tmp141, tmp142, tmp143
 292 0034 3B61     		str	r3, [r7, #16]	@ tmp141, vco_input_frequency
 167:main.c        **** 
 168:main.c        **** 		if ((vco_input_frequency < 1000000ul) || (vco_input_frequency > 2000000))	// skip invalid setting
 293              		.loc 1 168 0
 294 0036 3B69     		ldr	r3, [r7, #16]	@ tmp144, vco_input_frequency
 295 0038 3C4A     		ldr	r2, .L37+4	@ tmp145,
 296 003a 9342     		cmp	r3, r2	@ tmp144, tmp145
 297 003c 3DD9     		bls	.L34	@,
 298              		.loc 1 168 0 is_stmt 0 discriminator 1
 299 003e 3B69     		ldr	r3, [r7, #16]	@ tmp146, vco_input_frequency
 300 0040 3B4A     		ldr	r2, .L37+8	@ tmp147,
 301 0042 9342     		cmp	r3, r2	@ tmp146, tmp147
 302 0044 39D8     		bhi	.L34	@,
 169:main.c        **** 			continue;
 170:main.c        **** 
 171:main.c        **** 		for (mul = 64; mul <= 432; mul++)	// PLLN in [64; 432]
 303              		.loc 1 171 0 is_stmt 1
 304 0046 4023     		movs	r3, #64	@ tmp148,
 305 0048 BB62     		str	r3, [r7, #40]	@ tmp148, mul
 306 004a 31E0     		b	.L20	@
 307              	.L28:
 172:main.c        **** 		{
 173:main.c        **** 			vco_output_frequency = vco_input_frequency * mul;
 308              		.loc 1 173 0
 309 004c 3B69     		ldr	r3, [r7, #16]	@ tmp150, vco_input_frequency
 310 004e BA6A     		ldr	r2, [r7, #40]	@ tmp151, mul
 311 0050 02FB03F3 		mul	r3, r2, r3	@ tmp149, tmp151, tmp150
 312 0054 FB60     		str	r3, [r7, #12]	@ tmp149, vco_output_frequency
 174:main.c        **** 
 175:main.c        **** 			if ((vco_output_frequency < 64000000ul) || (vco_output_frequency > 432000000ul))	// skip invalid
 313              		.loc 1 175 0
 314 0056 FB68     		ldr	r3, [r7, #12]	@ tmp152, vco_output_frequency
 315 0058 364A     		ldr	r2, .L37+12	@ tmp153,
 316 005a 9342     		cmp	r3, r2	@ tmp152, tmp153
 317 005c 24D9     		bls	.L35	@,
 318              		.loc 1 175 0 is_stmt 0 discriminator 1
 319 005e FB68     		ldr	r3, [r7, #12]	@ tmp154, vco_output_frequency
 320 0060 354A     		ldr	r2, .L37+16	@ tmp155,
 321 0062 9342     		cmp	r3, r2	@ tmp154, tmp155
 322 0064 20D8     		bhi	.L35	@,
 176:main.c        **** 				continue;
 177:main.c        **** 
 178:main.c        **** 			for (div_core = 2; div_core <= 8; div_core += 2)	// PLLP in {2, 4, 6, 8}
 323              		.loc 1 178 0 is_stmt 1
 324 0066 0223     		movs	r3, #2	@ tmp156,
 325 0068 7B62     		str	r3, [r7, #36]	@ tmp156, div_core
 326 006a 19E0     		b	.L24	@
 327              	.L27:
 179:main.c        **** 			{
 180:main.c        **** 				frequency_core = vco_output_frequency / div_core;
 328              		.loc 1 180 0
 329 006c FA68     		ldr	r2, [r7, #12]	@ tmp159, vco_output_frequency
 330 006e 7B6A     		ldr	r3, [r7, #36]	@ tmp160, div_core
 331 0070 B2FBF3F3 		udiv	r3, r2, r3	@ tmp158, tmp159, tmp160
 332 0074 BB60     		str	r3, [r7, #8]	@ tmp158, frequency_core
 181:main.c        **** 
ARM GAS  C:\Users\Bartek\AppData\Local\Temp\ccL6GCh7.s 			page 10


 182:main.c        **** 				if (frequency_core > frequency)	// skip values over desired frequency
 333              		.loc 1 182 0
 334 0076 BA68     		ldr	r2, [r7, #8]	@ tmp161, frequency_core
 335 0078 3B68     		ldr	r3, [r7]	@ tmp162, frequency
 336 007a 9A42     		cmp	r2, r3	@ tmp161, tmp162
 337 007c 0CD8     		bhi	.L36	@,
 183:main.c        **** 					continue;
 184:main.c        **** 
 185:main.c        **** 				if (frequency_core > best_frequency_core)	// is this configuration better than previous one?
 338              		.loc 1 185 0
 339 007e BA68     		ldr	r2, [r7, #8]	@ tmp163, frequency_core
 340 0080 7B69     		ldr	r3, [r7, #20]	@ tmp164, best_frequency_core
 341 0082 9A42     		cmp	r2, r3	@ tmp163, tmp164
 342 0084 09D9     		bls	.L26	@,
 186:main.c        **** 				{
 187:main.c        **** 					best_frequency_core = frequency_core;	// yes - save values
 343              		.loc 1 187 0
 344 0086 BB68     		ldr	r3, [r7, #8]	@ tmp165, frequency_core
 345 0088 7B61     		str	r3, [r7, #20]	@ tmp165, best_frequency_core
 188:main.c        **** 					best_div = div;
 346              		.loc 1 188 0
 347 008a FB6A     		ldr	r3, [r7, #44]	@ tmp166, div
 348 008c 3B62     		str	r3, [r7, #32]	@ tmp166, best_div
 189:main.c        **** 					best_mul = mul;
 349              		.loc 1 189 0
 350 008e BB6A     		ldr	r3, [r7, #40]	@ tmp167, mul
 351 0090 FB61     		str	r3, [r7, #28]	@ tmp167, best_mul
 190:main.c        **** 					best_div_core = div_core;
 352              		.loc 1 190 0
 353 0092 7B6A     		ldr	r3, [r7, #36]	@ tmp168, div_core
 354 0094 BB61     		str	r3, [r7, #24]	@ tmp168, best_div_core
 355 0096 00E0     		b	.L26	@
 356              	.L36:
 183:main.c        **** 
 357              		.loc 1 183 0
 358 0098 00BF     		nop
 359              	.L26:
 178:main.c        **** 			{
 360              		.loc 1 178 0 discriminator 2
 361 009a 7B6A     		ldr	r3, [r7, #36]	@ tmp170, div_core
 362 009c 0233     		adds	r3, r3, #2	@ tmp169, tmp170,
 363 009e 7B62     		str	r3, [r7, #36]	@ tmp169, div_core
 364              	.L24:
 178:main.c        **** 			{
 365              		.loc 1 178 0 is_stmt 0 discriminator 1
 366 00a0 7B6A     		ldr	r3, [r7, #36]	@ tmp171, div_core
 367 00a2 082B     		cmp	r3, #8	@ tmp171,
 368 00a4 E2D9     		bls	.L27	@,
 369 00a6 00E0     		b	.L23	@
 370              	.L35:
 176:main.c        **** 
 371              		.loc 1 176 0 is_stmt 1
 372 00a8 00BF     		nop
 373              	.L23:
 171:main.c        **** 		{
 374              		.loc 1 171 0 discriminator 2
 375 00aa BB6A     		ldr	r3, [r7, #40]	@ tmp173, mul
ARM GAS  C:\Users\Bartek\AppData\Local\Temp\ccL6GCh7.s 			page 11


 376 00ac 0133     		adds	r3, r3, #1	@ tmp172, tmp173,
 377 00ae BB62     		str	r3, [r7, #40]	@ tmp172, mul
 378              	.L20:
 171:main.c        **** 		{
 379              		.loc 1 171 0 is_stmt 0 discriminator 1
 380 00b0 BB6A     		ldr	r3, [r7, #40]	@ tmp174, mul
 381 00b2 B3F5D87F 		cmp	r3, #432	@ tmp174,
 382 00b6 C9D9     		bls	.L28	@,
 383 00b8 00E0     		b	.L19	@
 384              	.L34:
 169:main.c        **** 
 385              		.loc 1 169 0 is_stmt 1
 386 00ba 00BF     		nop
 387              	.L19:
 164:main.c        **** 	{
 388              		.loc 1 164 0 discriminator 2
 389 00bc FB6A     		ldr	r3, [r7, #44]	@ tmp176, div
 390 00be 0133     		adds	r3, r3, #1	@ tmp175, tmp176,
 391 00c0 FB62     		str	r3, [r7, #44]	@ tmp175, div
 392              	.L16:
 164:main.c        **** 	{
 393              		.loc 1 164 0 is_stmt 0 discriminator 1
 394 00c2 FB6A     		ldr	r3, [r7, #44]	@ tmp177, div
 395 00c4 3F2B     		cmp	r3, #63	@ tmp177,
 396 00c6 B1D9     		bls	.L29	@,
 191:main.c        **** 				}
 192:main.c        **** 			}
 193:main.c        **** 		}
 194:main.c        **** 	}
 195:main.c        **** 
 196:main.c        **** 	RCC->PLLCFGR = (best_div << RCC_PLLCFGR_PLLM_bit) | (best_mul << RCC_PLLCFGR_PLLN_bit) | ((best_di
 397              		.loc 1 196 0 is_stmt 1
 398 00c8 1C49     		ldr	r1, .L37+20	@ D.5603,
 399 00ca FB69     		ldr	r3, [r7, #28]	@ tmp178, best_mul
 400 00cc 9A01     		lsls	r2, r3, #6	@ D.5604, tmp178,
 401 00ce 3B6A     		ldr	r3, [r7, #32]	@ tmp179, best_div
 402 00d0 1A43     		orrs	r2, r2, r3	@, D.5604, D.5604, tmp179
 403 00d2 BB69     		ldr	r3, [r7, #24]	@ tmp180, best_div_core
 404 00d4 5B08     		lsrs	r3, r3, #1	@ D.5604, tmp180,
 405 00d6 013B     		subs	r3, r3, #1	@ D.5604, D.5604,
 406 00d8 1B04     		lsls	r3, r3, #16	@ D.5604, D.5604,
 407 00da 1343     		orrs	r3, r3, r2	@, D.5604, D.5604, D.5604
 408 00dc 43F01463 		orr	r3, r3, #155189248	@ D.5604, D.5604,
 409 00e0 4B60     		str	r3, [r1, #4]	@ D.5604, _51->PLLCFGR
 197:main.c        **** 
 198:main.c        **** 	RCC->CFGR = RCC_CFGR_PPRE2_DIV2 | RCC_CFGR_PPRE1_DIV4 | RCC_CFGR_HPRE_DIV1;	// AHB - no prescaler,
 410              		.loc 1 198 0
 411 00e2 164B     		ldr	r3, .L37+20	@ D.5603,
 412 00e4 4FF41442 		mov	r2, #37888	@ tmp181,
 413 00e8 9A60     		str	r2, [r3, #8]	@ tmp181, _60->CFGR
 199:main.c        **** 
 200:main.c        **** 	while (!RCC_CR_HSERDY_bb);				// wait for stable clock
 414              		.loc 1 200 0
 415 00ea 00BF     		nop
 416              	.L30:
 417              		.loc 1 200 0 is_stmt 0 discriminator 1
 418 00ec 144B     		ldr	r3, .L37+24	@ D.5602,
ARM GAS  C:\Users\Bartek\AppData\Local\Temp\ccL6GCh7.s 			page 12


 419 00ee 1B68     		ldr	r3, [r3]	@ D.5604, *_62
 420 00f0 002B     		cmp	r3, #0	@ D.5604,
 421 00f2 FBD0     		beq	.L30	@,
 201:main.c        **** 
 202:main.c        **** 	RCC_CR_PLLON_bb = 1;					// enable PLL
 422              		.loc 1 202 0 is_stmt 1
 423 00f4 134B     		ldr	r3, .L37+28	@ D.5602,
 424 00f6 0122     		movs	r2, #1	@ tmp182,
 425 00f8 1A60     		str	r2, [r3]	@ tmp182, *_64
 203:main.c        **** 	while (!RCC_CR_PLLRDY_bb);				// wait for PLL lock
 426              		.loc 1 203 0
 427 00fa 00BF     		nop
 428              	.L31:
 429              		.loc 1 203 0 is_stmt 0 discriminator 1
 430 00fc 124B     		ldr	r3, .L37+32	@ D.5602,
 431 00fe 1B68     		ldr	r3, [r3]	@ D.5604, *_66
 432 0100 002B     		cmp	r3, #0	@ D.5604,
 433 0102 FBD0     		beq	.L31	@,
 204:main.c        **** 
 205:main.c        **** 	RCC->CFGR |= RCC_CFGR_SW_PLL;			// change SYSCLK to PLL
 434              		.loc 1 205 0 is_stmt 1
 435 0104 0D4A     		ldr	r2, .L37+20	@ D.5603,
 436 0106 0D4B     		ldr	r3, .L37+20	@ D.5603,
 437 0108 9B68     		ldr	r3, [r3, #8]	@ D.5604, _69->CFGR
 438 010a 43F00203 		orr	r3, r3, #2	@ D.5604, D.5604,
 439 010e 9360     		str	r3, [r2, #8]	@ D.5604, _68->CFGR
 206:main.c        **** 	while (((RCC->CFGR) & RCC_CFGR_SWS) != RCC_CFGR_SWS_PLL);	// wait for switch
 440              		.loc 1 206 0
 441 0110 00BF     		nop
 442              	.L32:
 443              		.loc 1 206 0 is_stmt 0 discriminator 1
 444 0112 0A4B     		ldr	r3, .L37+20	@ D.5603,
 445 0114 9B68     		ldr	r3, [r3, #8]	@ D.5604, _73->CFGR
 446 0116 03F00C03 		and	r3, r3, #12	@ D.5604, D.5604,
 447 011a 082B     		cmp	r3, #8	@ D.5604,
 448 011c F9D1     		bne	.L32	@,
 207:main.c        **** 
 208:main.c        **** 	return best_frequency_core;
 449              		.loc 1 208 0 is_stmt 1
 450 011e 7B69     		ldr	r3, [r7, #20]	@ D.5605, best_frequency_core
 209:main.c        **** }
 451              		.loc 1 209 0
 452 0120 1846     		mov	r0, r3	@, <retval>
 453 0122 3037     		adds	r7, r7, #48	@,,
 454              		.cfi_def_cfa_offset 8
 455 0124 BD46     		mov	sp, r7	@,
 456              		.cfi_def_cfa_register 13
 457              		@ sp needed	@
 458 0126 80BD     		pop	{r7, pc}	@
 459              	.L38:
 460              		.align	2
 461              	.L37:
 462 0128 40004742 		.word	1111949376
 463 012c 3F420F00 		.word	999999
 464 0130 80841E00 		.word	2000000
 465 0134 FF8FD003 		.word	63999999
 466 0138 00CCBF19 		.word	432000000
ARM GAS  C:\Users\Bartek\AppData\Local\Temp\ccL6GCh7.s 			page 13


 467 013c 00380240 		.word	1073887232
 468 0140 44004742 		.word	1111949380
 469 0144 60004742 		.word	1111949408
 470 0148 64004742 		.word	1111949412
 471              		.cfi_endproc
 472              	.LFE113:
 473              		.size	pll_start, .-pll_start
 474              		.section	.text.system_init,"ax",%progbits
 475              		.align	2
 476              		.thumb
 477              		.thumb_func
 478              		.type	system_init, %function
 479              	system_init:
 480              	.LFB114:
 210:main.c        **** 
 211:main.c        **** /*------------------------------------------------------------------------*//**
 212:main.c        **** * \brief Initializes system
 213:main.c        **** * \details Enables all GPIO ports
 214:main.c        **** *//*-------------------------------------------------------------------------*/
 215:main.c        **** 
 216:main.c        **** static void system_init(void)
 217:main.c        **** {
 481              		.loc 1 217 0
 482              		.cfi_startproc
 483              		@ args = 0, pretend = 0, frame = 0
 484              		@ frame_needed = 1, uses_anonymous_args = 0
 485 0000 80B5     		push	{r7, lr}	@
 486              		.cfi_def_cfa_offset 8
 487              		.cfi_offset 7, -8
 488              		.cfi_offset 14, -4
 489 0002 00AF     		add	r7, sp, #0	@,,
 490              		.cfi_def_cfa_register 7
 218:main.c        **** 	gpio_init();
 491              		.loc 1 218 0
 492 0004 FFF7FEFF 		bl	gpio_init	@
 219:main.c        **** }
 493              		.loc 1 219 0
 494 0008 00BF     		nop
 495 000a 80BD     		pop	{r7, pc}	@
 496              		.cfi_endproc
 497              	.LFE114:
 498              		.size	system_init, .-system_init
 499              		.text
 500              	.Letext0:
 501              		.file 2 "g:\\stm32toolchain\\gnu-arm\\5.2_2015q4\\arm-none-eabi\\include\\machine\\_default_types.
 502              		.file 3 "g:\\stm32toolchain\\gnu-arm\\5.2_2015q4\\arm-none-eabi\\include\\sys\\_stdint.h"
 503              		.file 4 "inc/core_cm4.h"
 504              		.file 5 "inc/stm32f4xx.h"