ARM GAS  C:\Users\Bartek\AppData\Local\Temp\ccfjwL04.s 			page 1


   1              		.syntax unified
   2              		.cpu cortex-m4
   3              		.eabi_attribute 27, 1	@ Tag_ABI_HardFP_use
   4              		.eabi_attribute 28, 1	@ Tag_ABI_VFP_args
   5              		.fpu fpv4-sp-d16
   6              		.eabi_attribute 23, 1	@ Tag_ABI_FP_number_model
   7              		.eabi_attribute 24, 1	@ Tag_ABI_align8_needed
   8              		.eabi_attribute 25, 1	@ Tag_ABI_align8_preserved
   9              		.eabi_attribute 26, 1	@ Tag_ABI_enum_size
  10              		.eabi_attribute 30, 6	@ Tag_ABI_optimization_goals
  11              		.eabi_attribute 34, 1	@ Tag_CPU_unaligned_access
  12              		.eabi_attribute 18, 4	@ Tag_ABI_PCS_wchar_t
  13              		.file	"main.c"
  14              	@ GNU C89 (GNU Tools for ARM Embedded Processors) version 5.2.1 20151202 (release) [ARM/embedded-5-
  15              	@	compiled by GNU C version 4.7.4, GMP version 4.3.2, MPFR version 2.4.2, MPC version 0.8.1
  16              	@ GGC heuristics: --param ggc-min-expand=100 --param ggc-min-heapsize=131072
  17              	@ options passed:  -I . -I inc -imultilib armv7e-m/fpu
  18              	@ -iprefix g:\stm32toolchain\gnu-arm\5.2_2015q4\bin\../lib/gcc/arm-none-eabi/5.2.1/
  19              	@ -isysroot g:\stm32toolchain\gnu-arm\5.2_2015q4\bin\../arm-none-eabi
  20              	@ -MD out/main.d -MF out/main.d -MP -MQ out/main.o -D__USES_INITFINI__
  21              	@ -D STM32F4XX main.c -mcpu=cortex-m4 -mthumb -mfloat-abi=hard
  22              	@ -mfpu=fpv4-sp-d16 -auxbase-strip out/main.o -g -ggdb3 -O0 -Wall
  23              	@ -Wstrict-prototypes -Wextra -std=gnu90 -ffast-math -ffunction-sections
  24              	@ -fdata-sections -fverbose-asm
  25              	@ options enabled:  -faggressive-loop-optimizations -fassociative-math
  26              	@ -fauto-inc-dec -fchkp-check-incomplete-type -fchkp-check-read
  27              	@ -fchkp-check-write -fchkp-instrument-calls -fchkp-narrow-bounds
  28              	@ -fchkp-optimize -fchkp-store-bounds -fchkp-use-static-bounds
  29              	@ -fchkp-use-static-const-bounds -fchkp-use-wrappers -fcommon
  30              	@ -fcx-limited-range -fdata-sections -fdelete-null-pointer-checks
  31              	@ -fdwarf2-cfi-asm -fearly-inlining -feliminate-unused-debug-types
  32              	@ -ffinite-math-only -ffunction-cse -ffunction-sections -fgcse-lm
  33              	@ -fgnu-runtime -fgnu-unique -fident -finline-atomics -fira-hoist-pressure
  34              	@ -fira-share-save-slots -fira-share-spill-slots -fivopts
  35              	@ -fkeep-static-consts -fleading-underscore -flifetime-dse
  36              	@ -flto-odr-type-merging -fmerge-debug-strings -fpeephole
  37              	@ -fprefetch-loop-arrays -freciprocal-math -freg-struct-return
  38              	@ -fsched-critical-path-heuristic -fsched-dep-count-heuristic
  39              	@ -fsched-group-heuristic -fsched-interblock -fsched-last-insn-heuristic
  40              	@ -fsched-rank-heuristic -fsched-spec -fsched-spec-insn-heuristic
  41              	@ -fsched-stalled-insns-dep -fsemantic-interposition -fshow-column
  42              	@ -fsplit-ivs-in-unroller -fstdarg-opt -fstrict-volatile-bitfields
  43              	@ -fsync-libcalls -ftree-coalesce-vars -ftree-cselim -ftree-forwprop
  44              	@ -ftree-loop-if-convert -ftree-loop-im -ftree-loop-ivcanon
  45              	@ -ftree-loop-optimize -ftree-parallelize-loops= -ftree-phiprop
  46              	@ -ftree-reassoc -ftree-scev-cprop -funit-at-a-time
  47              	@ -funsafe-math-optimizations -fverbose-asm -fzero-initialized-in-bss
  48              	@ -masm-syntax-unified -mlittle-endian -mpic-data-is-text-relative
  49              	@ -msched-prolog -mthumb -munaligned-access -mvectorize-with-neon-quad
  50              	
  51              		.text
  52              	.Ltext0:
  53              		.cfi_sections	.debug_frame
  54              		.section	.text.RCC_config,"ax",%progbits
  55              		.align	2
  56              		.global	RCC_config
  57              		.thumb
ARM GAS  C:\Users\Bartek\AppData\Local\Temp\ccfjwL04.s 			page 2


  58              		.thumb_func
  59              		.type	RCC_config, %function
  60              	RCC_config:
  61              	.LFB110:
  62              		.file 1 "main.c"
   1:main.c        **** 
   2:main.c        **** #include <stdint.h>
   3:main.c        **** #include "inc/stm32f4xx.h"
   4:main.c        **** #include "gpio.h"
   5:main.c        **** #include "hdr/hdr_rcc.h"
   6:main.c        **** 
   7:main.c        **** void RCC_config(void)
   8:main.c        **** {
  63              		.loc 1 8 0
  64              		.cfi_startproc
  65              		@ args = 0, pretend = 0, frame = 0
  66              		@ frame_needed = 1, uses_anonymous_args = 0
  67              		@ link register save eliminated.
  68 0000 80B4     		push	{r7}	@
  69              		.cfi_def_cfa_offset 4
  70              		.cfi_offset 7, -4
  71 0002 00AF     		add	r7, sp, #0	@,,
  72              		.cfi_def_cfa_register 7
   9:main.c        **** 	RCC->AHB1ENR |= RCC_AHB1ENR_GPIOGEN;
  73              		.loc 1 9 0
  74 0004 054A     		ldr	r2, .L2	@ D.5524,
  75 0006 054B     		ldr	r3, .L2	@ D.5524,
  76 0008 1B6B     		ldr	r3, [r3, #48]	@ D.5525, _2->AHB1ENR
  77 000a 43F04003 		orr	r3, r3, #64	@ D.5525, D.5525,
  78 000e 1363     		str	r3, [r2, #48]	@ D.5525, _1->AHB1ENR
  10:main.c        **** }
  79              		.loc 1 10 0
  80 0010 00BF     		nop
  81 0012 BD46     		mov	sp, r7	@,
  82              		.cfi_def_cfa_register 13
  83              		@ sp needed	@
  84 0014 5DF8047B 		ldr	r7, [sp], #4	@,
  85              		.cfi_restore 7
  86              		.cfi_def_cfa_offset 0
  87 0018 7047     		bx	lr	@
  88              	.L3:
  89 001a 00BF     		.align	2
  90              	.L2:
  91 001c 00380240 		.word	1073887232
  92              		.cfi_endproc
  93              	.LFE110:
  94              		.size	RCC_config, .-RCC_config
  95              		.section	.text.PLL_config,"ax",%progbits
  96              		.align	2
  97              		.global	PLL_config
  98              		.thumb
  99              		.thumb_func
 100              		.type	PLL_config, %function
 101              	PLL_config:
 102              	.LFB111:
  11:main.c        **** 
  12:main.c        **** void PLL_config(uint32_t crystal, uint32_t frequency)
ARM GAS  C:\Users\Bartek\AppData\Local\Temp\ccfjwL04.s 			page 3


  13:main.c        **** {
 103              		.loc 1 13 0
 104              		.cfi_startproc
 105              		@ args = 0, pretend = 0, frame = 48
 106              		@ frame_needed = 1, uses_anonymous_args = 0
 107              		@ link register save eliminated.
 108 0000 80B4     		push	{r7}	@
 109              		.cfi_def_cfa_offset 4
 110              		.cfi_offset 7, -4
 111 0002 8DB0     		sub	sp, sp, #52	@,,
 112              		.cfi_def_cfa_offset 56
 113 0004 00AF     		add	r7, sp, #0	@,,
 114              		.cfi_def_cfa_register 7
 115 0006 7860     		str	r0, [r7, #4]	@ crystal, crystal
 116 0008 3960     		str	r1, [r7]	@ frequency, frequency
  14:main.c        **** 	uint32_t PLLM_div, PLLP_div, PLLN_mult, vco_input_freq, vco_output_freq, pll_out_freq;
  15:main.c        **** 	uint32_t PLLM_div_best = 0, PLLP_div_best = 0, PLLN_mult_best = 0, pll_out_freq_best = 0;
 117              		.loc 1 15 0
 118 000a 0023     		movs	r3, #0	@ tmp110,
 119 000c FB61     		str	r3, [r7, #28]	@ tmp110, PLLM_div_best
 120 000e 0023     		movs	r3, #0	@ tmp111,
 121 0010 BB61     		str	r3, [r7, #24]	@ tmp111, PLLP_div_best
 122 0012 0023     		movs	r3, #0	@ tmp112,
 123 0014 7B61     		str	r3, [r7, #20]	@ tmp112, PLLN_mult_best
 124 0016 0023     		movs	r3, #0	@ tmp113,
 125 0018 3B62     		str	r3, [r7, #32]	@ tmp113, pll_out_freq_best
  16:main.c        **** 
  17:main.c        **** 	for(PLLM_div = 2; PLLM_div <= 63; PLLM_div++)	//PLLM divider [2; 63]
 126              		.loc 1 17 0
 127 001a 0223     		movs	r3, #2	@ tmp114,
 128 001c FB62     		str	r3, [r7, #44]	@ tmp114, PLLM_div
 129 001e 50E0     		b	.L5	@
 130              	.L19:
  18:main.c        **** 	{
  19:main.c        **** 		vco_input_freq = crystal / PLLM_div;
 131              		.loc 1 19 0
 132 0020 7A68     		ldr	r2, [r7, #4]	@ tmp117, crystal
 133 0022 FB6A     		ldr	r3, [r7, #44]	@ tmp118, PLLM_div
 134 0024 B2FBF3F3 		udiv	r3, r2, r3	@ tmp116, tmp117, tmp118
 135 0028 3B61     		str	r3, [r7, #16]	@ tmp116, vco_input_freq
  20:main.c        **** 		if((vco_input_freq < 1000000ul) || (vco_input_freq > 2000000ul) )	// edge values from RM
 136              		.loc 1 20 0
 137 002a 3B69     		ldr	r3, [r7, #16]	@ tmp119, vco_input_freq
 138 002c 294A     		ldr	r2, .L24	@ tmp120,
 139 002e 9342     		cmp	r3, r2	@ tmp119, tmp120
 140 0030 43D9     		bls	.L20	@,
 141              		.loc 1 20 0 is_stmt 0 discriminator 1
 142 0032 3B69     		ldr	r3, [r7, #16]	@ tmp121, vco_input_freq
 143 0034 284A     		ldr	r2, .L24+4	@ tmp122,
 144 0036 9342     		cmp	r3, r2	@ tmp121, tmp122
 145 0038 3FD8     		bhi	.L20	@,
  21:main.c        **** 			continue;
  22:main.c        **** 
  23:main.c        **** 		for(PLLN_mult = 50; PLLN_mult <= 432; PLLN_mult++)	//PLLN - VCO multiplication [50; 432]
 146              		.loc 1 23 0 is_stmt 1
 147 003a 3223     		movs	r3, #50	@ tmp123,
 148 003c 7B62     		str	r3, [r7, #36]	@ tmp123, PLLN_mult
ARM GAS  C:\Users\Bartek\AppData\Local\Temp\ccfjwL04.s 			page 4


 149 003e 37E0     		b	.L9	@
 150              	.L18:
  24:main.c        **** 		{
  25:main.c        **** 			vco_output_freq = vco_input_freq * PLLN_mult;
 151              		.loc 1 25 0
 152 0040 3B69     		ldr	r3, [r7, #16]	@ tmp125, vco_input_freq
 153 0042 7A6A     		ldr	r2, [r7, #36]	@ tmp126, PLLN_mult
 154 0044 02FB03F3 		mul	r3, r2, r3	@ tmp124, tmp126, tmp125
 155 0048 FB60     		str	r3, [r7, #12]	@ tmp124, vco_output_freq
  26:main.c        **** 			if((vco_output_freq < 100000000ul) || (vco_output_freq > 432000000ul))	//edge values from RM
 156              		.loc 1 26 0
 157 004a FB68     		ldr	r3, [r7, #12]	@ tmp127, vco_output_freq
 158 004c 234A     		ldr	r2, .L24+8	@ tmp128,
 159 004e 9342     		cmp	r3, r2	@ tmp127, tmp128
 160 0050 2AD9     		bls	.L21	@,
 161              		.loc 1 26 0 is_stmt 0 discriminator 1
 162 0052 FB68     		ldr	r3, [r7, #12]	@ tmp129, vco_output_freq
 163 0054 224A     		ldr	r2, .L24+12	@ tmp130,
 164 0056 9342     		cmp	r3, r2	@ tmp129, tmp130
 165 0058 26D8     		bhi	.L21	@,
  27:main.c        **** 				continue;
  28:main.c        **** 
  29:main.c        **** 			for(PLLP_div = 2; PLLP_div <= 8; PLLP_div++)	//PLLP divider [2, 4, 6, 8]
 166              		.loc 1 29 0 is_stmt 1
 167 005a 0223     		movs	r3, #2	@ tmp131,
 168 005c BB62     		str	r3, [r7, #40]	@ tmp131, PLLP_div
 169 005e 1FE0     		b	.L13	@
 170              	.L17:
  30:main.c        **** 			{
  31:main.c        **** 				pll_out_freq = vco_output_freq / PLLP_div;
 171              		.loc 1 31 0
 172 0060 FA68     		ldr	r2, [r7, #12]	@ tmp134, vco_output_freq
 173 0062 BB6A     		ldr	r3, [r7, #40]	@ tmp135, PLLP_div
 174 0064 B2FBF3F3 		udiv	r3, r2, r3	@ tmp133, tmp134, tmp135
 175 0068 BB60     		str	r3, [r7, #8]	@ tmp133, pll_out_freq
  32:main.c        **** 				if(pll_out_freq > 180000000ul)	//MAX FREQ 180MHz
 176              		.loc 1 32 0
 177 006a BB68     		ldr	r3, [r7, #8]	@ tmp136, pll_out_freq
 178 006c 1D4A     		ldr	r2, .L24+16	@ tmp137,
 179 006e 9342     		cmp	r3, r2	@ tmp136, tmp137
 180 0070 10D8     		bhi	.L22	@,
  33:main.c        **** 					continue;
  34:main.c        **** 
  35:main.c        **** 				if(pll_out_freq > frequency)
 181              		.loc 1 35 0
 182 0072 BA68     		ldr	r2, [r7, #8]	@ tmp138, pll_out_freq
 183 0074 3B68     		ldr	r3, [r7]	@ tmp139, frequency
 184 0076 9A42     		cmp	r2, r3	@ tmp138, tmp139
 185 0078 0ED8     		bhi	.L23	@,
  36:main.c        **** 					continue;
  37:main.c        **** 
  38:main.c        **** 				if(pll_out_freq > pll_out_freq_best)
 186              		.loc 1 38 0
 187 007a BA68     		ldr	r2, [r7, #8]	@ tmp140, pll_out_freq
 188 007c 3B6A     		ldr	r3, [r7, #32]	@ tmp141, pll_out_freq_best
 189 007e 9A42     		cmp	r2, r3	@ tmp140, tmp141
 190 0080 0BD9     		bls	.L15	@,
ARM GAS  C:\Users\Bartek\AppData\Local\Temp\ccfjwL04.s 			page 5


  39:main.c        **** 				{
  40:main.c        **** 					PLLM_div_best = PLLM_div;
 191              		.loc 1 40 0
 192 0082 FB6A     		ldr	r3, [r7, #44]	@ tmp142, PLLM_div
 193 0084 FB61     		str	r3, [r7, #28]	@ tmp142, PLLM_div_best
  41:main.c        **** 					PLLN_mult_best = PLLN_mult;
 194              		.loc 1 41 0
 195 0086 7B6A     		ldr	r3, [r7, #36]	@ tmp143, PLLN_mult
 196 0088 7B61     		str	r3, [r7, #20]	@ tmp143, PLLN_mult_best
  42:main.c        **** 					PLLP_div_best = PLLP_div;
 197              		.loc 1 42 0
 198 008a BB6A     		ldr	r3, [r7, #40]	@ tmp144, PLLP_div
 199 008c BB61     		str	r3, [r7, #24]	@ tmp144, PLLP_div_best
  43:main.c        **** 					pll_out_freq_best = pll_out_freq;
 200              		.loc 1 43 0
 201 008e BB68     		ldr	r3, [r7, #8]	@ tmp145, pll_out_freq
 202 0090 3B62     		str	r3, [r7, #32]	@ tmp145, pll_out_freq_best
 203 0092 02E0     		b	.L15	@
 204              	.L22:
  33:main.c        **** 
 205              		.loc 1 33 0
 206 0094 00BF     		nop
 207 0096 00E0     		b	.L15	@
 208              	.L23:
  36:main.c        **** 
 209              		.loc 1 36 0
 210 0098 00BF     		nop
 211              	.L15:
  29:main.c        **** 			{
 212              		.loc 1 29 0 discriminator 2
 213 009a BB6A     		ldr	r3, [r7, #40]	@ tmp147, PLLP_div
 214 009c 0133     		adds	r3, r3, #1	@ tmp146, tmp147,
 215 009e BB62     		str	r3, [r7, #40]	@ tmp146, PLLP_div
 216              	.L13:
  29:main.c        **** 			{
 217              		.loc 1 29 0 is_stmt 0 discriminator 1
 218 00a0 BB6A     		ldr	r3, [r7, #40]	@ tmp148, PLLP_div
 219 00a2 082B     		cmp	r3, #8	@ tmp148,
 220 00a4 DCD9     		bls	.L17	@,
 221 00a6 00E0     		b	.L12	@
 222              	.L21:
  27:main.c        **** 
 223              		.loc 1 27 0 is_stmt 1
 224 00a8 00BF     		nop
 225              	.L12:
  23:main.c        **** 		{
 226              		.loc 1 23 0 discriminator 2
 227 00aa 7B6A     		ldr	r3, [r7, #36]	@ tmp150, PLLN_mult
 228 00ac 0133     		adds	r3, r3, #1	@ tmp149, tmp150,
 229 00ae 7B62     		str	r3, [r7, #36]	@ tmp149, PLLN_mult
 230              	.L9:
  23:main.c        **** 		{
 231              		.loc 1 23 0 is_stmt 0 discriminator 1
 232 00b0 7B6A     		ldr	r3, [r7, #36]	@ tmp151, PLLN_mult
 233 00b2 B3F5D87F 		cmp	r3, #432	@ tmp151,
 234 00b6 C3D9     		bls	.L18	@,
 235 00b8 00E0     		b	.L8	@
ARM GAS  C:\Users\Bartek\AppData\Local\Temp\ccfjwL04.s 			page 6


 236              	.L20:
  21:main.c        **** 
 237              		.loc 1 21 0 is_stmt 1
 238 00ba 00BF     		nop
 239              	.L8:
  17:main.c        **** 	{
 240              		.loc 1 17 0 discriminator 2
 241 00bc FB6A     		ldr	r3, [r7, #44]	@ tmp153, PLLM_div
 242 00be 0133     		adds	r3, r3, #1	@ tmp152, tmp153,
 243 00c0 FB62     		str	r3, [r7, #44]	@ tmp152, PLLM_div
 244              	.L5:
  17:main.c        **** 	{
 245              		.loc 1 17 0 is_stmt 0 discriminator 1
 246 00c2 FB6A     		ldr	r3, [r7, #44]	@ tmp154, PLLM_div
 247 00c4 3F2B     		cmp	r3, #63	@ tmp154,
 248 00c6 ABD9     		bls	.L19	@,
  44:main.c        **** 				}
  45:main.c        **** 			}
  46:main.c        **** 		}
  47:main.c        **** 	}
  48:main.c        **** 
  49:main.c        **** 
  50:main.c        **** }
 249              		.loc 1 50 0 is_stmt 1
 250 00c8 00BF     		nop
 251 00ca 3437     		adds	r7, r7, #52	@,,
 252              		.cfi_def_cfa_offset 4
 253 00cc BD46     		mov	sp, r7	@,
 254              		.cfi_def_cfa_register 13
 255              		@ sp needed	@
 256 00ce 5DF8047B 		ldr	r7, [sp], #4	@,
 257              		.cfi_restore 7
 258              		.cfi_def_cfa_offset 0
 259 00d2 7047     		bx	lr	@
 260              	.L25:
 261              		.align	2
 262              	.L24:
 263 00d4 3F420F00 		.word	999999
 264 00d8 80841E00 		.word	2000000
 265 00dc FFE0F505 		.word	99999999
 266 00e0 00CCBF19 		.word	432000000
 267 00e4 0095BA0A 		.word	180000000
 268              		.cfi_endproc
 269              	.LFE111:
 270              		.size	PLL_config, .-PLL_config
 271              		.section	.text.main,"ax",%progbits
 272              		.align	2
 273              		.global	main
 274              		.thumb
 275              		.thumb_func
 276              		.type	main, %function
 277              	main:
 278              	.LFB112:
  51:main.c        **** 
  52:main.c        **** 
  53:main.c        **** 
  54:main.c        **** int main(void)
ARM GAS  C:\Users\Bartek\AppData\Local\Temp\ccfjwL04.s 			page 7


  55:main.c        **** {
 279              		.loc 1 55 0
 280              		.cfi_startproc
 281              		@ args = 0, pretend = 0, frame = 0
 282              		@ frame_needed = 1, uses_anonymous_args = 0
 283 0000 80B5     		push	{r7, lr}	@
 284              		.cfi_def_cfa_offset 8
 285              		.cfi_offset 7, -8
 286              		.cfi_offset 14, -4
 287 0002 00AF     		add	r7, sp, #0	@,,
 288              		.cfi_def_cfa_register 7
  56:main.c        **** 
  57:main.c        **** 	gpio_pin_cfg(GPIOG, 13, GPIO_OUT_PP_25MHz);
 289              		.loc 1 57 0
 290 0004 40F20112 		movw	r2, #257	@,
 291 0008 0D21     		movs	r1, #13	@,
 292 000a 0248     		ldr	r0, .L28	@,
 293 000c FFF7FEFF 		bl	gpio_pin_cfg	@
 294              	.L27:
  58:main.c        **** 
  59:main.c        **** 	while (1)
  60:main.c        **** 	{
  61:main.c        **** 
  62:main.c        **** 	}
 295              		.loc 1 62 0 discriminator 1
 296 0010 FEE7     		b	.L27	@
 297              	.L29:
 298 0012 00BF     		.align	2
 299              	.L28:
 300 0014 00180240 		.word	1073879040
 301              		.cfi_endproc
 302              	.LFE112:
 303              		.size	main, .-main
 304              		.text
 305              	.Letext0:
 306              		.file 2 "g:\\stm32toolchain\\gnu-arm\\5.2_2015q4\\arm-none-eabi\\include\\machine\\_default_types.
 307              		.file 3 "g:\\stm32toolchain\\gnu-arm\\5.2_2015q4\\arm-none-eabi\\include\\sys\\_stdint.h"
 308              		.file 4 "inc/stm32f4xx.h"
 309              		.file 5 "inc/core_cm4.h"